; Listing generated by Microsoft (R) Optimizing Compiler Version 19.36.32532.0 

include listing.inc

INCLUDELIB OLDNAMES

PUBLIC	??_R1A@?0A@EA@DynamicObject2D@@8		; DynamicObject2D::`RTTI Base Class Descriptor at (0,-1,0,64)'
PUBLIC	??_7DynamicObject2D_Fast@@6B@			; DynamicObject2D_Fast::`vftable'
PUBLIC	??_R3DynamicObject2D_Fast@@8			; DynamicObject2D_Fast::`RTTI Class Hierarchy Descriptor'
PUBLIC	?_rotationTable@?1??Rotate_DirectionVector@DynamicObject2D_Fast@@AEAAXAEAH0@Z@4QAY121$$CBHA ; `DynamicObject2D_Fast::Rotate_DirectionVector'::`2'::_rotationTable
PUBLIC	??_R0?AVDynamicObject2D_Fast@@@8		; DynamicObject2D_Fast `RTTI Type Descriptor'
PUBLIC	??_R4DynamicObject2D_Fast@@6B@			; DynamicObject2D_Fast::`RTTI Complete Object Locator'
PUBLIC	??_R2DynamicObject2D@@8				; DynamicObject2D::`RTTI Base Class Array'
PUBLIC	??_R4DynamicObject2D@@6B@			; DynamicObject2D::`RTTI Complete Object Locator'
PUBLIC	??_R2DynamicObject2D_Fast@@8			; DynamicObject2D_Fast::`RTTI Base Class Array'
PUBLIC	??_R1A@?0A@EA@DynamicObject2D_Fast@@8		; DynamicObject2D_Fast::`RTTI Base Class Descriptor at (0,-1,0,64)'
PUBLIC	??_R0?AVDynamicObject2D@@@8			; DynamicObject2D `RTTI Type Descriptor'
PUBLIC	??_R3DynamicObject2D@@8				; DynamicObject2D::`RTTI Class Hierarchy Descriptor'
PUBLIC	??_7DynamicObject2D@@6B@			; DynamicObject2D::`vftable'
EXTRN	??_7type_info@@6B@:BYTE				; type_info::`vftable'
EXTRN	__imp__purecall:PROC
EXTRN	_purecall:PROC
;	COMDAT ??_7DynamicObject2D@@6B@
CONST	SEGMENT
??_7DynamicObject2D@@6B@ DQ FLAT:??_R4DynamicObject2D@@6B@ ; DynamicObject2D::`vftable'
	DQ	FLAT:_purecall
	DQ	FLAT:_purecall
	DQ	FLAT:_purecall
CONST	ENDS
;	COMDAT ??_R3DynamicObject2D@@8
rdata$r	SEGMENT
??_R3DynamicObject2D@@8 DD 00H				; DynamicObject2D::`RTTI Class Hierarchy Descriptor'
	DD	00H
	DD	01H
	DD	imagerel ??_R2DynamicObject2D@@8
rdata$r	ENDS
;	COMDAT ??_R0?AVDynamicObject2D@@@8
data$rs	SEGMENT
??_R0?AVDynamicObject2D@@@8 DQ FLAT:??_7type_info@@6B@	; DynamicObject2D `RTTI Type Descriptor'
	DQ	0000000000000000H
	DB	'.?AVDynamicObject2D@@', 00H
data$rs	ENDS
;	COMDAT ??_R1A@?0A@EA@DynamicObject2D_Fast@@8
rdata$r	SEGMENT
??_R1A@?0A@EA@DynamicObject2D_Fast@@8 DD imagerel ??_R0?AVDynamicObject2D_Fast@@@8 ; DynamicObject2D_Fast::`RTTI Base Class Descriptor at (0,-1,0,64)'
	DD	01H
	DD	00H
	DD	0ffffffffH
	DD	00H
	DD	040H
	DD	imagerel ??_R3DynamicObject2D_Fast@@8
rdata$r	ENDS
;	COMDAT ??_R2DynamicObject2D_Fast@@8
rdata$r	SEGMENT
??_R2DynamicObject2D_Fast@@8 DD imagerel ??_R1A@?0A@EA@DynamicObject2D_Fast@@8 ; DynamicObject2D_Fast::`RTTI Base Class Array'
	DD	imagerel ??_R1A@?0A@EA@DynamicObject2D@@8
	ORG $+3
rdata$r	ENDS
;	COMDAT ??_R4DynamicObject2D@@6B@
rdata$r	SEGMENT
??_R4DynamicObject2D@@6B@ DD 01H			; DynamicObject2D::`RTTI Complete Object Locator'
	DD	00H
	DD	00H
	DD	imagerel ??_R0?AVDynamicObject2D@@@8
	DD	imagerel ??_R3DynamicObject2D@@8
	DD	imagerel ??_R4DynamicObject2D@@6B@
rdata$r	ENDS
;	COMDAT ??_R2DynamicObject2D@@8
rdata$r	SEGMENT
??_R2DynamicObject2D@@8 DD imagerel ??_R1A@?0A@EA@DynamicObject2D@@8 ; DynamicObject2D::`RTTI Base Class Array'
	ORG $+3
rdata$r	ENDS
;	COMDAT ??_R4DynamicObject2D_Fast@@6B@
rdata$r	SEGMENT
??_R4DynamicObject2D_Fast@@6B@ DD 01H			; DynamicObject2D_Fast::`RTTI Complete Object Locator'
	DD	00H
	DD	00H
	DD	imagerel ??_R0?AVDynamicObject2D_Fast@@@8
	DD	imagerel ??_R3DynamicObject2D_Fast@@8
	DD	imagerel ??_R4DynamicObject2D_Fast@@6B@
rdata$r	ENDS
;	COMDAT ??_R0?AVDynamicObject2D_Fast@@@8
data$rs	SEGMENT
??_R0?AVDynamicObject2D_Fast@@@8 DQ FLAT:??_7type_info@@6B@ ; DynamicObject2D_Fast `RTTI Type Descriptor'
	DQ	0000000000000000H
	DB	'.?AVDynamicObject2D_Fast@@', 00H
data$rs	ENDS
;	COMDAT ?_rotationTable@?1??Rotate_DirectionVector@DynamicObject2D_Fast@@AEAAXAEAH0@Z@4QAY121$$CBHA
CONST	SEGMENT
?_rotationTable@?1??Rotate_DirectionVector@DynamicObject2D_Fast@@AEAAXAEAH0@Z@4QAY121$$CBHA DD 00H ; `DynamicObject2D_Fast::Rotate_DirectionVector'::`2'::_rotationTable
	DD	0ffffffffH
	DD	0ffffffffH
	DD	0ffffffffH
	DD	0ffffffffH
	DD	00H
	DD	01H
	DD	0ffffffffH
	DD	00H
	DD	00H
	DD	0ffffffffH
	DD	01H
	DD	01H
	DD	00H
	DD	01H
	DD	01H
	DD	00H
	DD	01H
	DD	0ffffffffH
	DD	00H
	DD	0ffffffffH
	DD	01H
	DD	00H
	DD	01H
	DD	0ffffffffH
	DD	0ffffffffH
	DD	00H
	DD	00H
	DD	01H
	DD	01H
	DD	00H
	DD	0ffffffffH
	DD	01H
	DD	0ffffffffH
	DD	01H
	DD	00H
CONST	ENDS
;	COMDAT ??_R3DynamicObject2D_Fast@@8
rdata$r	SEGMENT
??_R3DynamicObject2D_Fast@@8 DD 00H			; DynamicObject2D_Fast::`RTTI Class Hierarchy Descriptor'
	DD	00H
	DD	02H
	DD	imagerel ??_R2DynamicObject2D_Fast@@8
rdata$r	ENDS
;	COMDAT ??_7DynamicObject2D_Fast@@6B@
CONST	SEGMENT
??_7DynamicObject2D_Fast@@6B@ DQ FLAT:??_R4DynamicObject2D_Fast@@6B@ ; DynamicObject2D_Fast::`vftable'
	DQ	FLAT:?var_x@DynamicObject2D_Fast@@UEBAHXZ
	DQ	FLAT:?var_y@DynamicObject2D_Fast@@UEBAHXZ
	DQ	FLAT:?Move_TowardsTarget@DynamicObject2D_Fast@@UEAA_NAEBH0QEAY0CI@H@Z
CONST	ENDS
;	COMDAT ??_R1A@?0A@EA@DynamicObject2D@@8
rdata$r	SEGMENT
??_R1A@?0A@EA@DynamicObject2D@@8 DD imagerel ??_R0?AVDynamicObject2D@@@8 ; DynamicObject2D::`RTTI Base Class Descriptor at (0,-1,0,64)'
	DD	00H
	DD	00H
	DD	0ffffffffH
	DD	00H
	DD	040H
	DD	imagerel ??_R3DynamicObject2D@@8
?_Fake_alloc@std@@3U_Fake_allocator@1@B	ORG $+1		; std::_Fake_alloc
PUBLIC	?Move_TowardsTarget@DynamicObject2D_Fast@@UEAA_NAEBH0QEAY0CI@H@Z ; DynamicObject2D_Fast::Move_TowardsTarget
PUBLIC	?Update_CurrentPosition@DynamicObject2D_Fast@@AEAAXHH@Z ; DynamicObject2D_Fast::Update_CurrentPosition
PUBLIC	?Is_NewPositionNotBlocked@DynamicObject2D_Fast@@AEAA_NHHQEAY0CI@$$CBH@Z ; DynamicObject2D_Fast::Is_NewPositionNotBlocked
PUBLIC	?Switch_RotationDirection@DynamicObject2D_Fast@@AEAAXXZ ; DynamicObject2D_Fast::Switch_RotationDirection
PUBLIC	?Rotate_DirectionVector@DynamicObject2D_Fast@@AEAAXAEAH0@Z ; DynamicObject2D_Fast::Rotate_DirectionVector
PUBLIC	?Randomize_DirectionVector@DynamicObject2D_Fast@@AEAAXXZ ; DynamicObject2D_Fast::Randomize_DirectionVector
PUBLIC	??0DynamicObject2D@@QEAA@XZ			; DynamicObject2D::DynamicObject2D
PUBLIC	?var_y@DynamicObject2D_Fast@@UEBAHXZ		; DynamicObject2D_Fast::var_y
PUBLIC	?var_x@DynamicObject2D_Fast@@UEBAHXZ		; DynamicObject2D_Fast::var_x
PUBLIC	??0DynamicObject2D_Fast@@QEAA@XZ		; DynamicObject2D_Fast::DynamicObject2D_Fast
;	COMDAT pdata
pdata	SEGMENT
$pdata$?Move_TowardsTarget@DynamicObject2D_Fast@@UEAA_NAEBH0QEAY0CI@H@Z DD imagerel $LN26@Move_Towar
	DD	imagerel $LN26@Move_Towar+319
	DD	imagerel $unwind$?Move_TowardsTarget@DynamicObject2D_Fast@@UEAA_NAEBH0QEAY0CI@H@Z
pdata	ENDS
;	COMDAT pdata
pdata	SEGMENT
$pdata$?Randomize_DirectionVector@DynamicObject2D_Fast@@AEAAXXZ DD imagerel $LN128@Randomize_
	DD	imagerel $LN128@Randomize_+184
	DD	imagerel $unwind$?Randomize_DirectionVector@DynamicObject2D_Fast@@AEAAXXZ
pdata	ENDS
;	COMDAT pdata
pdata	SEGMENT
$pdata$??0DynamicObject2D_Fast@@QEAA@XZ DD imagerel $LN133@DynamicObj
	DD	imagerel $LN133@DynamicObj+218
	DD	imagerel $unwind$??0DynamicObject2D_Fast@@QEAA@XZ
pdata	ENDS
;	COMDAT xdata
xdata	SEGMENT
$unwind$??0DynamicObject2D_Fast@@QEAA@XZ DQ 0027b341300052519r ; 1.03989e-296
	DQ	00000700602780113r		; 6.08546e-310
	DD	imagerel __GSHandlerCheck
	DD	013b0H
xdata	ENDS
;	COMDAT xdata
xdata	SEGMENT
$unwind$?Randomize_DirectionVector@DynamicObject2D_Fast@@AEAAXXZ DQ 0027b341300052519r ; 1.03989e-296
	DQ	00000700602780113r		; 6.08546e-310
	DD	imagerel __GSHandlerCheck
	DD	013b0H
xdata	ENDS
;	COMDAT xdata
xdata	SEGMENT
$unwind$?Move_TowardsTarget@DynamicObject2D_Fast@@UEAA_NAEBH0QEAY0CI@H@Z DQ 00003740f00060f01r ; 4.80248e-309
	DQ	0000134050002640ar		; 1.67326e-309
END
