; Listing generated by Microsoft (R) Optimizing Compiler Version 19.36.32532.0 

include listing.inc

INCLUDELIB OLDNAMES

PUBLIC	??_C@_01LKDEMHDF@s@				; `string'
PUBLIC	??_C@_0BA@IJLKECNK@?5?$HM?5Time?5taken?3?5@	; `string'
PUBLIC	??_C@_0BE@OMBNDAFO@Number?5of?5objects?3?5@	; `string'
PUBLIC	??_C@_03LCPHGAHP@cls@				; `string'
EXTRN	__imp_?good@ios_base@std@@QEBA_NXZ:PROC
EXTRN	__imp_?flags@ios_base@std@@QEBAHXZ:PROC
EXTRN	__imp_?width@ios_base@std@@QEBA_JXZ:PROC
EXTRN	__imp_?width@ios_base@std@@QEAA_J_J@Z:PROC
EXTRN	__imp_??6?$basic_ostream@DU?$char_traits@D@std@@@std@@QEAAAEAV01@N@Z:PROC
EXTRN	__imp_??6?$basic_ostream@DU?$char_traits@D@std@@@std@@QEAAAEAV01@H@Z:PROC
EXTRN	__imp_??6?$basic_ostream@DU?$char_traits@D@std@@@std@@QEAAAEAV01@P6AAEAV01@AEAV01@@Z@Z:PROC
EXTRN	__imp_?fill@?$basic_ios@DU?$char_traits@D@std@@@std@@QEBADXZ:PROC
EXTRN	__imp_?rdbuf@?$basic_ios@DU?$char_traits@D@std@@@std@@QEBAPEAV?$basic_streambuf@DU?$char_traits@D@std@@@2@XZ:PROC
EXTRN	__imp_?setstate@?$basic_ios@DU?$char_traits@D@std@@@std@@QEAAXH_N@Z:PROC
EXTRN	__imp_?flush@?$basic_ostream@DU?$char_traits@D@std@@@std@@QEAAAEAV12@XZ:PROC
EXTRN	__imp_?_Osfx@?$basic_ostream@DU?$char_traits@D@std@@@std@@QEAAXXZ:PROC
EXTRN	__imp_?tie@?$basic_ios@DU?$char_traits@D@std@@@std@@QEBAPEAV?$basic_ostream@DU?$char_traits@D@std@@@2@XZ:PROC
EXTRN	__imp_?sputc@?$basic_streambuf@DU?$char_traits@D@std@@@std@@QEAAHD@Z:PROC
EXTRN	__imp_?put@?$basic_ostream@DU?$char_traits@D@std@@@std@@QEAAAEAV12@D@Z:PROC
EXTRN	__imp_?widen@?$basic_ios@DU?$char_traits@D@std@@@std@@QEBADD@Z:PROC
EXTRN	__imp_?sputn@?$basic_streambuf@DU?$char_traits@D@std@@@std@@QEAA_JPEBD_J@Z:PROC
EXTRN	__imp__Query_perf_counter:PROC
EXTRN	__imp_getchar:PROC
EXTRN	??_U@YAPEAX_K@Z:PROC				; operator new[]
EXTRN	__imp_system:PROC
EXTRN	__imp_?uncaught_exception@std@@YA_NXZ:PROC
EXTRN	__imp_?cout@std@@3V?$basic_ostream@DU?$char_traits@D@std@@@1@A:BYTE
EXTRN	__imp__Query_perf_frequency:PROC
EXTRN	??_V@YAXPEAX_K@Z:PROC				; operator delete[]
EXTRN	??_V@YAXPEAX@Z:PROC				; operator delete[]
?_Fake_alloc@std@@3U_Fake_allocator@1@B	ORG $+1		; std::_Fake_alloc
CONST	ENDS
;	COMDAT ??_C@_03LCPHGAHP@cls@
CONST	SEGMENT
??_C@_03LCPHGAHP@cls@ DB 'cls', 00H			; `string'
CONST	ENDS
;	COMDAT ??_C@_0BE@OMBNDAFO@Number?5of?5objects?3?5@
CONST	SEGMENT
??_C@_0BE@OMBNDAFO@Number?5of?5objects?3?5@ DB 'Number of objects: ', 00H ; `string'
CONST	ENDS
;	COMDAT ??_C@_0BA@IJLKECNK@?5?$HM?5Time?5taken?3?5@
CONST	SEGMENT
??_C@_0BA@IJLKECNK@?5?$HM?5Time?5taken?3?5@ DB ' | Time taken: ', 00H ; `string'
CONST	ENDS
;	COMDAT ??_C@_01LKDEMHDF@s@
CONST	SEGMENT
??_C@_01LKDEMHDF@s@ DB 's', 00H				; `string'
CONST	ENDS
PUBLIC	??$?G_JU?$ratio@$00$0DLJKMKAA@@std@@_JU01@@chrono@std@@YA?AV?$duration@_JU?$ratio@$00$0DLJKMKAA@@std@@@01@AEBV201@0@Z ; std::chrono::operator-<__int64,std::ratio<1,1000000000>,__int64,std::ratio<1,1000000000> >
PUBLIC	?time_since_epoch@?$time_point@Usteady_clock@chrono@std@@V?$duration@_JU?$ratio@$00$0DLJKMKAA@@std@@@23@@chrono@std@@QEBA?AV?$duration@_JU?$ratio@$00$0DLJKMKAA@@std@@@23@XZ ; std::chrono::time_point<std::chrono::steady_clock,std::chrono::duration<__int64,std::ratio<1,1000000000> > >::time_since_epoch
PUBLIC	??$endl@DU?$char_traits@D@std@@@std@@YAAEAV?$basic_ostream@DU?$char_traits@D@std@@@0@AEAV10@@Z ; std::endl<char,std::char_traits<char> >
PUBLIC	??$?6U?$char_traits@D@std@@@std@@YAAEAV?$basic_ostream@DU?$char_traits@D@std@@@0@AEAV10@PEBD@Z ; std::operator<<<std::char_traits<char> >
PUBLIC	??$?GUsteady_clock@chrono@std@@V?$duration@_JU?$ratio@$00$0DLJKMKAA@@std@@@12@V312@@chrono@std@@YA?AV?$duration@_JU?$ratio@$00$0DLJKMKAA@@std@@@01@AEBV?$time_point@Usteady_clock@chrono@std@@V?$duration@_JU?$ratio@$00$0DLJKMKAA@@std@@@23@@01@0@Z ; std::chrono::operator-<std::chrono::steady_clock,std::chrono::duration<__int64,std::ratio<1,1000000000> >,std::chrono::duration<__int64,std::ratio<1,1000000000> > >
PUBLIC	??0_Sentry_base@?$basic_ostream@DU?$char_traits@D@std@@@std@@QEAA@AEAV12@@Z ; std::basic_ostream<char,std::char_traits<char> >::_Sentry_base::_Sentry_base
PUBLIC	??1_Sentry_base@?$basic_ostream@DU?$char_traits@D@std@@@std@@QEAA@XZ ; std::basic_ostream<char,std::char_traits<char> >::_Sentry_base::~_Sentry_base
PUBLIC	?length@?$_Narrow_char_traits@DH@std@@SA_KQEBD@Z ; std::_Narrow_char_traits<char,int>::length
PUBLIC	?eq_int_type@?$_Narrow_char_traits@DH@std@@SA_NAEBH0@Z ; std::_Narrow_char_traits<char,int>::eq_int_type
PUBLIC	?eof@?$_Narrow_char_traits@DH@std@@SAHXZ	; std::_Narrow_char_traits<char,int>::eof
PUBLIC	??0sentry@?$basic_ostream@DU?$char_traits@D@std@@@std@@QEAA@AEAV12@@Z ; std::basic_ostream<char,std::char_traits<char> >::sentry::sentry
PUBLIC	??1sentry@?$basic_ostream@DU?$char_traits@D@std@@@std@@QEAA@XZ ; std::basic_ostream<char,std::char_traits<char> >::sentry::~sentry
PUBLIC	??Bsentry@?$basic_ostream@DU?$char_traits@D@std@@@std@@QEBA_NXZ ; std::basic_ostream<char,std::char_traits<char> >::sentry::operator bool
PUBLIC	?zero@?$duration_values@N@chrono@std@@SANXZ	; std::chrono::duration_values<double>::zero
PUBLIC	?zero@?$duration_values@_J@chrono@std@@SA_JXZ	; std::chrono::duration_values<__int64>::zero
PUBLIC	?zero@?$duration@_JU?$ratio@$00$0DLJKMKAA@@std@@@chrono@std@@SA?AV123@XZ ; std::chrono::duration<__int64,std::ratio<1,1000000000> >::zero
PUBLIC	??0?$time_point@Usteady_clock@chrono@std@@V?$duration@_JU?$ratio@$00$0DLJKMKAA@@std@@@23@@chrono@std@@QEAA@AEBV?$duration@_JU?$ratio@$00$0DLJKMKAA@@std@@@12@@Z ; std::chrono::time_point<std::chrono::steady_clock,std::chrono::duration<__int64,std::ratio<1,1000000000> > >::time_point<std::chrono::steady_clock,std::chrono::duration<__int64,std::ratio<1,1000000000> > >
PUBLIC	??Y?$duration@NU?$ratio@$00$00@std@@@chrono@std@@QEAAAEAV012@AEBV012@@Z ; std::chrono::duration<double,std::ratio<1,1> >::operator+=
PUBLIC	?zero@?$duration@NU?$ratio@$00$00@std@@@chrono@std@@SA?AV123@XZ ; std::chrono::duration<double,std::ratio<1,1> >::zero
PUBLIC	?Draw_Scene@@YAXAEAVScene2D@@@Z			; Draw_Scene
PUBLIC	?__autoclassinit2@Scene2D@@QEAAX_K@Z		; Scene2D::__autoclassinit2
PUBLIC	??_H@YAXPEAX_K1P6APEAX0@Z@Z			; `vector constructor iterator'
PUBLIC	??0?$time_point@Usteady_clock@chrono@std@@V?$duration@_JU?$ratio@$00$0DLJKMKAA@@std@@@23@@chrono@std@@QEAA@XZ ; std::chrono::time_point<std::chrono::steady_clock,std::chrono::duration<__int64,std::ratio<1,1000000000> > >::time_point<std::chrono::steady_clock,std::chrono::duration<__int64,std::ratio<1,1000000000> > >
PUBLIC	main
PUBLIC	??0Object2D@@QEAA@HH@Z				; Object2D::Object2D
PUBLIC	?count@?$duration@NU?$ratio@$00$00@std@@@chrono@std@@QEBANXZ ; std::chrono::duration<double,std::ratio<1,1> >::count
PUBLIC	??$?0N$0A@@?$duration@NU?$ratio@$00$00@std@@@chrono@std@@QEAA@AEBN@Z ; std::chrono::duration<double,std::ratio<1,1> >::duration<double,std::ratio<1,1> ><double,0>
PUBLIC	??$duration_cast@V?$duration@NU?$ratio@$00$00@std@@@chrono@std@@_JU?$ratio@$00$0DLJKMKAA@@3@$0A@@chrono@std@@YA?AV?$duration@NU?$ratio@$00$00@std@@@01@AEBV?$duration@_JU?$ratio@$00$0DLJKMKAA@@std@@@01@@Z ; std::chrono::duration_cast<std::chrono::duration<double,std::ratio<1,1> >,__int64,std::ratio<1,1000000000>,0>
PUBLIC	??$?0_JU?$ratio@$00$0DLJKMKAA@@std@@$0A@@?$duration@NU?$ratio@$00$00@std@@@chrono@std@@QEAA@AEBV?$duration@_JU?$ratio@$00$0DLJKMKAA@@std@@@12@@Z ; std::chrono::duration<double,std::ratio<1,1> >::duration<double,std::ratio<1,1> ><__int64,std::ratio<1,1000000000>,0>
PUBLIC	?count@?$duration@_JU?$ratio@$00$0DLJKMKAA@@std@@@chrono@std@@QEBA_JXZ ; std::chrono::duration<__int64,std::ratio<1,1000000000> >::count
PUBLIC	??$?0_J$0A@@?$duration@_JU?$ratio@$00$0DLJKMKAA@@std@@@chrono@std@@QEAA@AEB_J@Z ; std::chrono::duration<__int64,std::ratio<1,1000000000> >::duration<__int64,std::ratio<1,1000000000> ><__int64,0>
PUBLIC	?now@steady_clock@chrono@std@@SA?AV?$time_point@Usteady_clock@chrono@std@@V?$duration@_JU?$ratio@$00$0DLJKMKAA@@std@@@23@@23@XZ ; std::chrono::steady_clock::now
;	COMDAT pdata
pdata	SEGMENT
$pdata$??$endl@DU?$char_traits@D@std@@@std@@YAAEAV?$basic_ostream@DU?$char_traits@D@std@@@0@AEAV10@@Z DD imagerel $LN4@endl
	DD	imagerel $LN4@endl+57
	DD	imagerel $unwind$??$endl@DU?$char_traits@D@std@@@std@@YAAEAV?$basic_ostream@DU?$char_traits@D@std@@@0@AEAV10@@Z
pdata	ENDS
;	COMDAT pdata
pdata	SEGMENT
$pdata$??$?6U?$char_traits@D@std@@@std@@YAAEAV?$basic_ostream@DU?$char_traits@D@std@@@0@AEAV10@PEBD@Z DD imagerel $LN105@operator
	DD	imagerel $LN105@operator+461
	DD	imagerel $unwind$??$?6U?$char_traits@D@std@@@std@@YAAEAV?$basic_ostream@DU?$char_traits@D@std@@@0@AEAV10@PEBD@Z
pdata	ENDS
;	COMDAT pdata
pdata	SEGMENT
$pdata$?catch$17@?0???$?6U?$char_traits@D@std@@@std@@YAAEAV?$basic_ostream@DU?$char_traits@D@std@@@0@AEAV10@PEBD@Z@4HA DD imagerel ?catch$17@?0???$?6U?$char_traits@D@std@@@std@@YAAEAV?$basic_ostream@DU?$char_traits@D@std@@@0@AEAV10@PEBD@Z@4HA
	DD	imagerel ?catch$17@?0???$?6U?$char_traits@D@std@@@std@@YAAEAV?$basic_ostream@DU?$char_traits@D@std@@@0@AEAV10@PEBD@Z@4HA+59
	DD	imagerel $unwind$?catch$17@?0???$?6U?$char_traits@D@std@@@std@@YAAEAV?$basic_ostream@DU?$char_traits@D@std@@@0@AEAV10@PEBD@Z@4HA
pdata	ENDS
;	COMDAT pdata
pdata	SEGMENT
$pdata$??0_Sentry_base@?$basic_ostream@DU?$char_traits@D@std@@@std@@QEAA@AEAV12@@Z DD imagerel $LN11@Sentry_bas
	DD	imagerel $LN11@Sentry_bas+44
	DD	imagerel $unwind$??0_Sentry_base@?$basic_ostream@DU?$char_traits@D@std@@@std@@QEAA@AEAV12@@Z
pdata	ENDS
;	COMDAT pdata
pdata	SEGMENT
$pdata$??1_Sentry_base@?$basic_ostream@DU?$char_traits@D@std@@@std@@QEAA@XZ DD imagerel $LN9@Sentry_bas
	DD	imagerel $LN9@Sentry_bas+36
	DD	imagerel $unwind$??1_Sentry_base@?$basic_ostream@DU?$char_traits@D@std@@@std@@QEAA@XZ
pdata	ENDS
;	COMDAT pdata
pdata	SEGMENT
$pdata$??0sentry@?$basic_ostream@DU?$char_traits@D@std@@@std@@QEAA@AEAV12@@Z DD imagerel $LN18@sentry
	DD	imagerel $LN18@sentry+133
	DD	imagerel $unwind$??0sentry@?$basic_ostream@DU?$char_traits@D@std@@@std@@QEAA@AEAV12@@Z
pdata	ENDS
;	COMDAT pdata
pdata	SEGMENT
$pdata$??1sentry@?$basic_ostream@DU?$char_traits@D@std@@@std@@QEAA@XZ DD imagerel $LN14@sentry
	DD	imagerel $LN14@sentry+62
	DD	imagerel $unwind$??1sentry@?$basic_ostream@DU?$char_traits@D@std@@@std@@QEAA@XZ
pdata	ENDS
;	COMDAT pdata
pdata	SEGMENT
$pdata$?Draw_Scene@@YAXAEAVScene2D@@@Z DD imagerel $LN175@Draw_Scene
	DD	imagerel $LN175@Draw_Scene+727
	DD	imagerel $unwind$?Draw_Scene@@YAXAEAVScene2D@@@Z
pdata	ENDS
;	COMDAT pdata
pdata	SEGMENT
$pdata$??_H@YAXPEAX_K1P6APEAX0@Z@Z DD imagerel $LN121
	DD	imagerel $LN121+47
	DD	imagerel $unwind$??_H@YAXPEAX_K1P6APEAX0@Z@Z
pdata	ENDS
;	COMDAT pdata
pdata	SEGMENT
$pdata$main DD	imagerel $LN276
	DD	imagerel $LN276+1011
	DD	imagerel $unwind$main
pdata	ENDS
;	COMDAT pdata
pdata	SEGMENT
$pdata$main$dtor$0 DD imagerel main$dtor$0
	DD	imagerel main$dtor$0+29
	DD	imagerel $unwind$main$dtor$0
pdata	ENDS
;	COMDAT pdata
pdata	SEGMENT
$pdata$?now@steady_clock@chrono@std@@SA?AV?$time_point@Usteady_clock@chrono@std@@V?$duration@_JU?$ratio@$00$0DLJKMKAA@@std@@@23@@23@XZ DD imagerel $LN17@now
	DD	imagerel $LN17@now+105
	DD	imagerel $unwind$?now@steady_clock@chrono@std@@SA?AV?$time_point@Usteady_clock@chrono@std@@V?$duration@_JU?$ratio@$00$0DLJKMKAA@@std@@@23@@23@XZ
;	COMDAT xdata
xdata	SEGMENT
$unwind$?now@steady_clock@chrono@std@@SA?AV?$time_point@Usteady_clock@chrono@std@@V?$duration@_JU?$ratio@$00$0DLJKMKAA@@std@@@23@@23@XZ DQ 00006340a00040a01r ; 8.62672e-309
	DD	07006320aH
xdata	ENDS
;	COMDAT xdata
xdata	SEGMENT
$unwind$main$dtor$0 DD 020601H
	DD	050023206H
xdata	ENDS
;	COMDAT xdata
xdata	SEGMENT
$ip2state$main DB 08H
	DB	':'
	DB	00H
	DB	0dcH
	DB	02H
	DB	0a5H, 02H
	DB	00H
	DB	0b4H
	DB	04H
xdata	ENDS
;	COMDAT xdata
xdata	SEGMENT
$stateUnwindMap$main DB 04H
	DB	0eH
	DD	imagerel main$dtor$0
	DB	032H
	DD	imagerel ??1Scene2D@@QEAA@XZ
	DB	050H
xdata	ENDS
;	COMDAT xdata
xdata	SEGMENT
$cppxdata$main DB 028H
	DD	imagerel $stateUnwindMap$main
	DD	imagerel $ip2state$main
xdata	ENDS
;	COMDAT xdata
xdata	SEGMENT
$unwind$main DD	0135019H
	DD	02cd883eH
	DD	02ce7835H
	DD	02cf682dH
	DD	05a86425H
	DD	05a75425H
	DD	05a63425H
	DD	05a00125H
	DD	0e016f018H
	DD	0c012d014H
	DD	07010H
	DD	imagerel __GSHandlerCheck_EH4
	DD	imagerel $cppxdata$main
	DD	02cc2H
xdata	ENDS
;	COMDAT xdata
xdata	SEGMENT
$unwind$??_H@YAXPEAX_K1P6APEAX0@Z@Z DD 040a01H
	DD	06340aH
	DD	07006320aH
xdata	ENDS
;	COMDAT xdata
xdata	SEGMENT
$unwind$?Draw_Scene@@YAXAEAVScene2D@@@Z DQ 00004740f00060f01r ; 6.19315e-309
	DQ	0000234050003640ar		; 3.06393e-309
xdata	ENDS
;	COMDAT xdata
xdata	SEGMENT
$ip2state$??1sentry@?$basic_ostream@DU?$char_traits@D@std@@@std@@QEAA@XZ DW 06802H
	DB	02H
xdata	ENDS
;	COMDAT xdata
xdata	SEGMENT
$stateUnwindMap$??1sentry@?$basic_ostream@DU?$char_traits@D@std@@@std@@QEAA@XZ DW 0e02H
	DD	imagerel __std_terminate
xdata	ENDS
;	COMDAT xdata
xdata	SEGMENT
$cppxdata$??1sentry@?$basic_ostream@DU?$char_traits@D@std@@@std@@QEAA@XZ DB 068H
	DD	imagerel $stateUnwindMap$??1sentry@?$basic_ostream@DU?$char_traits@D@std@@@std@@QEAA@XZ
	DD	imagerel $ip2state$??1sentry@?$basic_ostream@DU?$char_traits@D@std@@@std@@QEAA@XZ
xdata	ENDS
;	COMDAT xdata
xdata	SEGMENT
$unwind$??1sentry@?$basic_ostream@DU?$char_traits@D@std@@@std@@QEAA@XZ DQ 03002320600020619r ; 1.96423e-77
	DD	imagerel __CxxFrameHandler4
	DD	imagerel $cppxdata$??1sentry@?$basic_ostream@DU?$char_traits@D@std@@@std@@QEAA@XZ
xdata	ENDS
;	COMDAT xdata
xdata	SEGMENT
$ip2state$??0sentry@?$basic_ostream@DU?$char_traits@D@std@@@std@@QEAA@AEAV12@@Z DD 05c005804H
	DB	02H
xdata	ENDS
;	COMDAT xdata
xdata	SEGMENT
$stateUnwindMap$??0sentry@?$basic_ostream@DU?$char_traits@D@std@@@std@@QEAA@AEAV12@@Z DW 0c02H
	DD	imagerel ??1_Sentry_base@?$basic_ostream@DU?$char_traits@D@std@@@std@@QEAA@XZ
	DB	060H
xdata	ENDS
;	COMDAT xdata
xdata	SEGMENT
$cppxdata$??0sentry@?$basic_ostream@DU?$char_traits@D@std@@@std@@QEAA@AEAV12@@Z DB 028H
	DD	imagerel $stateUnwindMap$??0sentry@?$basic_ostream@DU?$char_traits@D@std@@@std@@QEAA@AEAV12@@Z
	DD	imagerel $ip2state$??0sentry@?$basic_ostream@DU?$char_traits@D@std@@@std@@QEAA@AEAV12@@Z
xdata	ENDS
;	COMDAT xdata
xdata	SEGMENT
$unwind$??0sentry@?$basic_ostream@DU?$char_traits@D@std@@@std@@QEAA@AEAV12@@Z DQ 00007340f00040f11r ; 1.00175e-308
	DD	0700b320fH
	DD	imagerel __CxxFrameHandler4
	DD	imagerel $cppxdata$??0sentry@?$basic_ostream@DU?$char_traits@D@std@@@std@@QEAA@AEAV12@@Z
xdata	ENDS
;	COMDAT xdata
xdata	SEGMENT
$ip2state$??1_Sentry_base@?$basic_ostream@DU?$char_traits@D@std@@@std@@QEAA@XZ DW 03602H
	DB	00H
xdata	ENDS
;	COMDAT xdata
xdata	SEGMENT
$cppxdata$??1_Sentry_base@?$basic_ostream@DU?$char_traits@D@std@@@std@@QEAA@XZ DB 060H
	DD	imagerel $ip2state$??1_Sentry_base@?$basic_ostream@DU?$char_traits@D@std@@@std@@QEAA@XZ
xdata	ENDS
;	COMDAT xdata
xdata	SEGMENT
$unwind$??1_Sentry_base@?$basic_ostream@DU?$char_traits@D@std@@@std@@QEAA@XZ DQ 00000420400010419r ; 3.58617e-310
	DD	imagerel __CxxFrameHandler4
	DD	imagerel $cppxdata$??1_Sentry_base@?$basic_ostream@DU?$char_traits@D@std@@@std@@QEAA@XZ
xdata	ENDS
;	COMDAT xdata
xdata	SEGMENT
$unwind$??0_Sentry_base@?$basic_ostream@DU?$char_traits@D@std@@@std@@QEAA@AEAV12@@Z DQ 03002320600020601r ; 1.96423e-77
xdata	ENDS
;	COMDAT xdata
xdata	SEGMENT
$unwind$?catch$17@?0???$?6U?$char_traits@D@std@@@std@@YAAEAV?$basic_ostream@DU?$char_traits@D@std@@@0@AEAV10@PEBD@Z@4HA DQ 05006320a00020a01r ; 3.21257e+77
xdata	ENDS
;	COMDAT xdata
xdata	SEGMENT
$ip2state$??$?6U?$char_traits@D@std@@@std@@YAAEAV?$basic_ostream@DU?$char_traits@D@std@@@0@AEAV10@PEBD@Z DQ 0de06ba025c00d60cr ; -8.86834e+144
	DD	052004c04H
	DB	0aH
xdata	ENDS
;	COMDAT xdata
xdata	SEGMENT
$handlerMap$??$?6U?$char_traits@D@std@@@std@@YAAEAV?$basic_ostream@DU?$char_traits@D@std@@@0@AEAV10@PEBD@Z DW 01102H
	DB	080H
	DD	imagerel ?catch$17@?0???$?6U?$char_traits@D@std@@@std@@YAAEAV?$basic_ostream@DU?$char_traits@D@std@@@0@AEAV10@PEBD@Z@4HA
	DW	059dH
xdata	ENDS
;	COMDAT xdata
xdata	SEGMENT
$tryMap$??$?6U?$char_traits@D@std@@@std@@YAAEAV?$basic_ostream@DU?$char_traits@D@std@@@0@AEAV10@PEBD@Z DD 06040402H
	DD	imagerel $handlerMap$??$?6U?$char_traits@D@std@@@std@@YAAEAV?$basic_ostream@DU?$char_traits@D@std@@@0@AEAV10@PEBD@Z
xdata	ENDS
;	COMDAT xdata
xdata	SEGMENT
$stateUnwindMap$??$?6U?$char_traits@D@std@@@std@@YAAEAV?$basic_ostream@DU?$char_traits@D@std@@@0@AEAV10@PEBD@Z DW 0a0aH
	DD	imagerel ??1_Sentry_base@?$basic_ostream@DU?$char_traits@D@std@@@std@@QEAA@XZ
	DW	03a40H
	DD	imagerel ??1sentry@?$basic_ostream@DU?$char_traits@D@std@@@std@@QEAA@XZ
	DD	07e383040H
	DD	imagerel __std_terminate
xdata	ENDS
;	COMDAT xdata
xdata	SEGMENT
$cppxdata$??$?6U?$char_traits@D@std@@@std@@YAAEAV?$basic_ostream@DU?$char_traits@D@std@@@0@AEAV10@PEBD@Z DB 038H
	DD	imagerel $stateUnwindMap$??$?6U?$char_traits@D@std@@@std@@YAAEAV?$basic_ostream@DU?$char_traits@D@std@@@0@AEAV10@PEBD@Z
	DD	imagerel $tryMap$??$?6U?$char_traits@D@std@@@std@@YAAEAV?$basic_ostream@DU?$char_traits@D@std@@@0@AEAV10@PEBD@Z
	DD	imagerel $ip2state$??$?6U?$char_traits@D@std@@@std@@YAAEAV?$basic_ostream@DU?$char_traits@D@std@@@0@AEAV10@PEBD@Z
xdata	ENDS
;	COMDAT xdata
xdata	SEGMENT
$unwind$??$?6U?$char_traits@D@std@@@std@@YAAEAV?$basic_ostream@DU?$char_traits@D@std@@@0@AEAV10@PEBD@Z DQ 0000d341600081619r ; 1.83617e-308
	DQ	0c00ee010f0125216r		; -3.85941
	DD	0600b700cH
	DD	imagerel __CxxFrameHandler4
	DD	imagerel $cppxdata$??$?6U?$char_traits@D@std@@@std@@YAAEAV?$basic_ostream@DU?$char_traits@D@std@@@0@AEAV10@PEBD@Z
xdata	ENDS
;	COMDAT xdata
xdata	SEGMENT
$unwind$??$endl@DU?$char_traits@D@std@@@std@@YAAEAV?$basic_ostream@DU?$char_traits@D@std@@@0@AEAV10@@Z DQ 03002320600020601r ; 1.96423e-77
; Function compile flags: /Ogtpy
; File C:\Users\damia\Desktop\CrowdSimulation\CrowdSimulation\main.cpp
; File C:\Users\damia\Desktop\CrowdSimulation\CrowdSimulation\DynamicObject2D.cpp
; File C:\Users\damia\Desktop\CrowdSimulation\CrowdSimulation\main.cpp
; File C:\Users\damia\Desktop\CrowdSimulation\CrowdSimulation\DynamicObject2D_Fast.cpp
; File C:\Users\damia\Desktop\CrowdSimulation\CrowdSimulation\DynamicObject2D_Fast.h
; File C:\Users\damia\Desktop\CrowdSimulation\CrowdSimulation\DynamicObject2D_Fast.cpp
; File C:\Program Files\Microsoft Visual Studio\2022\Community\VC\Tools\MSVC\14.36.32532\include\random
; File C:\Users\damia\Desktop\CrowdSimulation\CrowdSimulation\DynamicObject2D_Fast.cpp
; File C:\Program Files\Microsoft Visual Studio\2022\Community\VC\Tools\MSVC\14.36.32532\include\random
; File C:\Users\damia\Desktop\CrowdSimulation\CrowdSimulation\Random.cpp
; File C:\Users\damia\Desktop\CrowdSimulation\CrowdSimulation\DynamicObject2D_Fast.cpp
; File C:\Users\damia\Desktop\CrowdSimulation\CrowdSimulation\Scene2D.cpp
; File C:\Users\damia\Desktop\CrowdSimulation\CrowdSimulation\main.cpp
; File C:\Users\damia\Desktop\CrowdSimulation\CrowdSimulation\Struct.h
; File C:\Program Files\Microsoft Visual Studio\2022\Community\VC\Tools\MSVC\14.36.32532\include\__msvc_chrono.hpp
; File C:\Users\damia\Desktop\CrowdSimulation\CrowdSimulation\Scene2D.cpp
; File C:\Program Files\Microsoft Visual Studio\2022\Community\VC\Tools\MSVC\14.36.32532\include\__msvc_chrono.hpp
; File C:\Users\damia\Desktop\CrowdSimulation\CrowdSimulation\main.cpp
; File C:\Program Files\Microsoft Visual Studio\2022\Community\VC\Tools\MSVC\14.36.32532\include\__msvc_chrono.hpp
; File C:\Users\damia\Desktop\CrowdSimulation\CrowdSimulation\Scene2D.cpp
; File C:\Users\damia\Desktop\CrowdSimulation\CrowdSimulation\main.cpp
; File C:\Users\damia\Desktop\CrowdSimulation\CrowdSimulation\Scene2D.cpp
; File C:\Users\damia\Desktop\CrowdSimulation\CrowdSimulation\main.cpp
; File C:\Users\damia\Desktop\CrowdSimulation\CrowdSimulation\Scene2D.cpp
; File C:\Users\damia\Desktop\CrowdSimulation\CrowdSimulation\main.cpp
;	COMDAT main
_TEXT	SEGMENT
_target$ = 32
_scene2D$ = 40
$T1 = 40
_gen$41 = 48
_map$ = 5056
__$ArrayPad$ = 11456
main	PROC						; COMDAT

; 14   : {

$LN276:
	mov	QWORD PTR [rsp+8], rbx
	mov	QWORD PTR [rsp+16], rbp
	mov	QWORD PTR [rsp+24], rsi
	push	rdi
	push	r12
	push	r13
	push	r14
	push	r15
	mov	eax, 11520				; 00002d00H
	call	__chkstk
	sub	rsp, rax
	movaps	XMMWORD PTR [rsp+11504], xmm6
	movaps	XMMWORD PTR [rsp+11488], xmm7
	movaps	XMMWORD PTR [rsp+11472], xmm8
	mov	rax, QWORD PTR __security_cookie
	xor	rax, rsp
	mov	QWORD PTR __$ArrayPad$[rsp], rax

; 15   :     // Map array:
; 16   :     int _map[SCENE_WIDTH][SCENE_HEIGHT] = { 0 };

	xor	edx, edx
	mov	r8d, 6400				; 00001900H
	lea	rcx, QWORD PTR _map$[rsp]
	call	memset
; File C:\Users\damia\Desktop\CrowdSimulation\CrowdSimulation\DynamicObject2D.cpp

; 12   :     x_constructor = x;

	mov	DWORD PTR ?x_constructor@DynamicObject2D@@1HA, 38 ; DynamicObject2D::x_constructor, 00000026H

; 13   :     y_constructor = y;

	mov	DWORD PTR ?y_constructor@DynamicObject2D@@1HA, 38 ; DynamicObject2D::y_constructor, 00000026H
; File C:\Users\damia\Desktop\CrowdSimulation\CrowdSimulation\main.cpp

; 20   :     DynamicObject2D* _obj_Base = new DynamicObject2D_Fast[DYNAMIC_OBJECT_CNT];

	mov	ecx, 16000				; 00003e80H
	call	??_U@YAPEAX_K@Z				; operator new[]
	mov	r13, rax
	mov	QWORD PTR $T1[rsp], rax
	mov	edi, 500				; 000001f4H

; 15   :     // Map array:
; 16   :     int _map[SCENE_WIDTH][SCENE_HEIGHT] = { 0 };

	lea	rbx, QWORD PTR [rax+8]
	lea	rbp, OFFSET FLAT:??_7DynamicObject2D_Fast@@6B@
	mov	esi, 1
$LL120@main:
	dec	rdi
; File C:\Users\damia\Desktop\CrowdSimulation\CrowdSimulation\DynamicObject2D_Fast.cpp

; 9    :     {

	mov	QWORD PTR [rbx-8], rbp
; File C:\Users\damia\Desktop\CrowdSimulation\CrowdSimulation\DynamicObject2D_Fast.h

; 24   :         bool rotationEnabled = false;

	mov	BYTE PTR [rbx+20], 0
; File C:\Users\damia\Desktop\CrowdSimulation\CrowdSimulation\DynamicObject2D_Fast.cpp

; 10   :         this->x = x_constructor;

	mov	eax, DWORD PTR ?x_constructor@DynamicObject2D@@1HA ; DynamicObject2D::x_constructor
	mov	DWORD PTR [rbx], eax

; 11   :         this->y = y_constructor;

	mov	eax, DWORD PTR ?y_constructor@DynamicObject2D@@1HA ; DynamicObject2D::y_constructor
	mov	DWORD PTR [rbx+4], eax
; File C:\Program Files\Microsoft Visual Studio\2022\Community\VC\Tools\MSVC\14.36.32532\include\random

; 5091 :         return _Random_device();

	call	QWORD PTR __imp_?_Random_device@std@@YAIXZ

; 1112 :         : _Dxval(_Dxarg) {

	mov	DWORD PTR _gen$41[rsp+4996], -1		; ffffffffH

; 1123 :         _Ty _Prev = this->_Ax[0] = _Xx0 & _WMSK;

	mov	DWORD PTR _gen$41[rsp+4], eax
; File C:\Users\damia\Desktop\CrowdSimulation\CrowdSimulation\DynamicObject2D_Fast.cpp

; 9    :     {

	mov	rdx, rsi
	npad	12
$LL243@main:
; File C:\Program Files\Microsoft Visual Studio\2022\Community\VC\Tools\MSVC\14.36.32532\include\random

; 1125 :             _Prev = this->_Ax[_Ix] = (_Ix + _Fx * (_Prev ^ (_Prev >> (_Wx - 2)))) & _WMSK;

	mov	ecx, eax
	shr	ecx, 30
	xor	ecx, eax
	imul	eax, ecx, 1812433253			; 6c078965H
	add	eax, edx
	mov	DWORD PTR _gen$41[rsp+rdx*4+4], eax

; 1124 :         for (size_t _Ix = 1; _Ix < _Nx; ++_Ix) {

	inc	rdx
	cmp	rdx, 624				; 00000270H
	jb	SHORT $LL243@main

; 1126 :         }
; 1127 : 
; 1128 :         this->_Idx = _Nx;

	mov	DWORD PTR _gen$41[rsp], 624		; 00000270H

; 1816 :             const _Udiff _Val = _Ref() - _Urng_min;

	lea	rcx, QWORD PTR _gen$41[rsp]
	call	??R?$mersenne_twister@I$0CA@$0CHA@$0BIN@$0BP@$0JJAILANP@$0L@$06$0JNCMFGIA@$0P@$0OPMGAAAA@$0BC@@std@@QEAAIXZ ; std::mersenne_twister<unsigned int,32,624,397,31,2567483615,11,7,2636928640,15,4022730752,18>::operator()

; 1848 :             return _Uprod{_Ret} * _Uprod{_Index};

	mov	ecx, eax
	add	rcx, rcx

; 1772 :         auto _Product = _Get_random_product(_Index, _Niter);

	shr	rcx, 32					; 00000020H
; File C:\Users\damia\Desktop\CrowdSimulation\CrowdSimulation\Random.cpp

; 14   :         return (_randomNumber == 0) ? a : b;

	mov	eax, 4
	test	ecx, ecx
	cmove	eax, esi
; File C:\Users\damia\Desktop\CrowdSimulation\CrowdSimulation\DynamicObject2D_Fast.cpp

; 20   :         moveRotationDirection = Random::Draw_OneOfTwo(1, 4);

	mov	DWORD PTR [rbx+8], eax
	add	rbx, 32					; 00000020H
	test	rdi, rdi
	jne	$LL120@main
; File C:\Users\damia\Desktop\CrowdSimulation\CrowdSimulation\Scene2D.cpp

; 8    :     this->map = map;

	lea	rax, QWORD PTR _map$[rsp]
	mov	QWORD PTR _scene2D$[rsp], rax
; File C:\Users\damia\Desktop\CrowdSimulation\CrowdSimulation\main.cpp

; 28   :     Draw_Scene(_scene2D);

	lea	rcx, QWORD PTR _scene2D$[rsp]
	call	?Draw_Scene@@YAXAEAVScene2D@@@Z		; Draw_Scene
; File C:\Users\damia\Desktop\CrowdSimulation\CrowdSimulation\Struct.h

; 11   :         Object2D(int _x, int _y) : x(_x), y(_y) {}

	mov	DWORD PTR _target$[rsp], 10
	mov	DWORD PTR _target$[rsp+4], 10
	xor	r12d, r12d
	mov	rbx, QWORD PTR _scene2D$[rsp]
	movsd	xmm8, QWORD PTR __real@41cdcd6500000000
	npad	4
$LL2@main:
	xorps	xmm6, xmm6
; File C:\Program Files\Microsoft Visual Studio\2022\Community\VC\Tools\MSVC\14.36.32532\include\__msvc_chrono.hpp

; 99   :             : _MyRep(static_cast<_Rep>(_Val)) {}

	mov	rsi, r13
	mov	r14, r13
	mov	r15d, 500				; 000001f4H
	npad	1
$LL6@main:
; File C:\Users\damia\Desktop\CrowdSimulation\CrowdSimulation\Scene2D.cpp

; 35   :     if (object2D != nullptr)

	movaps	xmm7, xmm6
	test	rsi, rsi
	je	SHORT $LN15@main

; 36   :         (*this->map)[object2D->var_x()][object2D->var_y()] = 0;

	mov	rax, QWORD PTR [rsi]
	mov	rcx, rsi
	call	QWORD PTR [rax]
	movsxd	rcx, eax
	lea	rdi, QWORD PTR [rcx+rcx*4]
	shl	rdi, 3
	mov	rax, QWORD PTR [rsi]
	mov	rcx, rsi
	call	QWORD PTR [rax+8]
	movsxd	rcx, eax
	add	rcx, rdi
	mov	DWORD PTR [rbx+rcx*4], r12d
$LN15@main:
; File C:\Program Files\Microsoft Visual Studio\2022\Community\VC\Tools\MSVC\14.36.32532\include\__msvc_chrono.hpp

; 670  :             const long long _Freq = _Query_perf_frequency(); // doesn't change after system boot

	call	QWORD PTR __imp__Query_perf_frequency
	mov	rdi, rax

; 671  :             const long long _Ctr  = _Query_perf_counter();

	call	QWORD PTR __imp__Query_perf_counter

; 672  :             static_assert(period::num == 1, "This assumes period::num == 1.");
; 673  :             // 10 MHz is a very common QPC frequency on modern PCs. Optimizing for
; 674  :             // this specific frequency can double the performance of this function by
; 675  :             // avoiding the expensive frequency conversion path.
; 676  :             constexpr long long _TenMHz = 10'000'000;
; 677  :             if (_Freq == _TenMHz) {

	cmp	rdi, 10000000				; 00989680H
	jne	SHORT $LN18@main

; 678  :                 static_assert(period::den % _TenMHz == 0, "It should never fail.");
; 679  :                 constexpr long long _Multiplier = period::den / _TenMHz;
; 680  :                 return time_point(duration(_Ctr * _Multiplier));

	imul	rdi, rax, 100				; 00000064H
	jmp	SHORT $LN19@main
$LN18@main:

; 688  :                 const long long _Part  = (_Ctr % _Freq) * period::den / _Freq;

	cdq
	idiv	rdi
	mov	rcx, rax
	imul	rax, rdx, 1000000000			; 3b9aca00H
	cdq
	idiv	rdi

; 681  :             } else {
; 682  :                 // Instead of just having "(_Ctr * period::den) / _Freq",
; 683  :                 // the algorithm below prevents overflow when _Ctr is sufficiently large.
; 684  :                 // It assumes that _Freq * period::den does not overflow, which is currently true for nano period.
; 685  :                 // It is not realistic for _Ctr to accumulate to large values from zero with this assumption,
; 686  :                 // but the initial value of _Ctr could be large.
; 687  :                 const long long _Whole = (_Ctr / _Freq) * period::den;

	imul	rdi, rcx, 1000000000			; 3b9aca00H

; 689  :                 return time_point(duration(_Whole + _Part));

	add	rdi, rax
$LN19@main:
; File C:\Users\damia\Desktop\CrowdSimulation\CrowdSimulation\main.cpp

; 50   :             _obj[i].Move_TowardsTarget(_target.x, _target.y, _map);

	mov	r10, QWORD PTR [rsi]
	lea	r9, QWORD PTR _map$[rsp]
	lea	r8, QWORD PTR _target$[rsp+4]
	lea	rdx, QWORD PTR _target$[rsp]
	mov	rcx, r14
	call	QWORD PTR [r10+16]
; File C:\Program Files\Microsoft Visual Studio\2022\Community\VC\Tools\MSVC\14.36.32532\include\__msvc_chrono.hpp

; 670  :             const long long _Freq = _Query_perf_frequency(); // doesn't change after system boot

	call	QWORD PTR __imp__Query_perf_frequency
	mov	rbp, rax

; 671  :             const long long _Ctr  = _Query_perf_counter();

	call	QWORD PTR __imp__Query_perf_counter

; 672  :             static_assert(period::num == 1, "This assumes period::num == 1.");
; 673  :             // 10 MHz is a very common QPC frequency on modern PCs. Optimizing for
; 674  :             // this specific frequency can double the performance of this function by
; 675  :             // avoiding the expensive frequency conversion path.
; 676  :             constexpr long long _TenMHz = 10'000'000;
; 677  :             if (_Freq == _TenMHz) {

	xorps	xmm6, xmm6
	cmp	rbp, 10000000				; 00989680H
	jne	SHORT $LN30@main

; 678  :                 static_assert(period::den % _TenMHz == 0, "It should never fail.");
; 679  :                 constexpr long long _Multiplier = period::den / _TenMHz;
; 680  :                 return time_point(duration(_Ctr * _Multiplier));

	imul	rax, rax, 100				; 00000064H
	jmp	SHORT $LN273@main
$LN30@main:

; 688  :                 const long long _Part  = (_Ctr % _Freq) * period::den / _Freq;

	cdq
	idiv	rbp
	mov	rcx, rax
	imul	rax, rdx, 1000000000			; 3b9aca00H
	cdq
	idiv	rbp

; 681  :             } else {
; 682  :                 // Instead of just having "(_Ctr * period::den) / _Freq",
; 683  :                 // the algorithm below prevents overflow when _Ctr is sufficiently large.
; 684  :                 // It assumes that _Freq * period::den does not overflow, which is currently true for nano period.
; 685  :                 // It is not realistic for _Ctr to accumulate to large values from zero with this assumption,
; 686  :                 // but the initial value of _Ctr could be large.
; 687  :                 const long long _Whole = (_Ctr / _Freq) * period::den;

	imul	rcx, rcx, 1000000000			; 3b9aca00H

; 689  :                 return time_point(duration(_Whole + _Part));

	add	rax, rcx
$LN273@main:
; File C:\Users\damia\Desktop\CrowdSimulation\CrowdSimulation\Scene2D.cpp

; 30   :         (*this->map)[object2D->var_x()][object2D->var_y()] = COLOR_DYNAMIC_NUMBER;

	sub	rax, rdi
	cvtsi2sd xmm6, rax
	divsd	xmm6, xmm8
	addsd	xmm6, xmm7
	mov	rax, QWORD PTR [rsi]
	mov	rcx, rsi
	call	QWORD PTR [rax]
	movsxd	rcx, eax
	lea	rdi, QWORD PTR [rcx+rcx*4]
	shl	rdi, 3
	mov	rax, QWORD PTR [rsi]
	mov	rcx, rsi
	call	QWORD PTR [rax+8]
	movsxd	rcx, eax
	add	rcx, rdi
	mov	DWORD PTR [rbx+rcx*4], 2
; File C:\Users\damia\Desktop\CrowdSimulation\CrowdSimulation\main.cpp

; 42   :         for (int i = 0; i < DYNAMIC_OBJECT_CNT; i++)

	add	r14, 32					; 00000020H
	add	rsi, 32					; 00000020H
	sub	r15, 1
	jne	$LL6@main

; 60   :         std::cout << "Number of objects: " << DYNAMIC_OBJECT_CNT << " | Time taken: " << _duration.count() << "s" << std::endl;

	lea	rdx, OFFSET FLAT:??_C@_0BE@OMBNDAFO@Number?5of?5objects?3?5@
	mov	rcx, QWORD PTR __imp_?cout@std@@3V?$basic_ostream@DU?$char_traits@D@std@@@1@A
	call	??$?6U?$char_traits@D@std@@@std@@YAAEAV?$basic_ostream@DU?$char_traits@D@std@@@0@AEAV10@PEBD@Z ; std::operator<<<std::char_traits<char> >
	mov	rcx, rax
	mov	edx, 500				; 000001f4H
	call	QWORD PTR __imp_??6?$basic_ostream@DU?$char_traits@D@std@@@std@@QEAAAEAV01@H@Z
	mov	rcx, rax
	lea	rdx, OFFSET FLAT:??_C@_0BA@IJLKECNK@?5?$HM?5Time?5taken?3?5@
	call	??$?6U?$char_traits@D@std@@@std@@YAAEAV?$basic_ostream@DU?$char_traits@D@std@@@0@AEAV10@PEBD@Z ; std::operator<<<std::char_traits<char> >
	mov	rcx, rax
	movaps	xmm1, xmm6
	call	QWORD PTR __imp_??6?$basic_ostream@DU?$char_traits@D@std@@@std@@QEAAAEAV01@N@Z
	mov	rcx, rax
	lea	rdx, OFFSET FLAT:??_C@_01LKDEMHDF@s@
	call	??$?6U?$char_traits@D@std@@@std@@YAAEAV?$basic_ostream@DU?$char_traits@D@std@@@0@AEAV10@PEBD@Z ; std::operator<<<std::char_traits<char> >
	mov	rcx, rax
	lea	rdx, OFFSET FLAT:??$endl@DU?$char_traits@D@std@@@std@@YAAEAV?$basic_ostream@DU?$char_traits@D@std@@@0@AEAV10@@Z ; std::endl<char,std::char_traits<char> >
	call	QWORD PTR __imp_??6?$basic_ostream@DU?$char_traits@D@std@@@std@@QEAAAEAV01@P6AAEAV01@AEAV01@@Z@Z
; File C:\Users\damia\Desktop\CrowdSimulation\CrowdSimulation\Scene2D.cpp

; 19   :     (*this->map)[x][y] += value;

	movsxd	rax, DWORD PTR _target$[rsp]
	lea	rcx, QWORD PTR [rax+rax*4]
	movsxd	rax, DWORD PTR _target$[rsp+4]
	lea	rdx, QWORD PTR [rax+rcx*8]
	add	DWORD PTR [rbx+rdx*4], 4
; File C:\Users\damia\Desktop\CrowdSimulation\CrowdSimulation\main.cpp

; 60   :         std::cout << "Number of objects: " << DYNAMIC_OBJECT_CNT << " | Time taken: " << _duration.count() << "s" << std::endl;

	mov	rbp, rbx
	lea	r14d, QWORD PTR [r15+40]
	npad	7
$LL83@main:
; File C:\Users\damia\Desktop\CrowdSimulation\CrowdSimulation\Scene2D.cpp

; 55   :         for (int x = 0; x < SCENE_WIDTH; x++)

	mov	rdi, rbp
	mov	esi, 40					; 00000028H
$LL86@main:

; 56   :         {
; 57   :             switch ((*this->map)[x][y])

	mov	ecx, DWORD PTR [rdi]
	sub	ecx, 1
	je	SHORT $LN90@main
	sub	ecx, 1
	je	SHORT $LN89@main
	sub	ecx, 2
	je	SHORT $LN91@main
	cmp	ecx, 2
	mov	rcx, QWORD PTR __imp_?cout@std@@3V?$basic_ostream@DU?$char_traits@D@std@@@1@A
	je	SHORT $LN92@main

; 74   : 
; 75   :                 default:
; 76   :                     std::cout << char(219) << char(219);

	call	??$?6U?$char_traits@D@std@@@std@@YAAEAV?$basic_ostream@DU?$char_traits@D@std@@@0@AEAV10@D@Z ; std::operator<<<std::char_traits<char> >
	mov	rcx, rax
	call	??$?6U?$char_traits@D@std@@@std@@YAAEAV?$basic_ostream@DU?$char_traits@D@std@@@0@AEAV10@D@Z ; std::operator<<<std::char_traits<char> >
	jmp	SHORT $LN84@main
$LN92@main:

; 70   : 
; 71   :                 case COLOR_BLUE_NUMBER:
; 72   :                     std::cout << COLOR_BLUE << char(219) << char(219) << COLOR_RESET;

	lea	rdx, OFFSET FLAT:??_C@_05HJEAFNDH@?$BL?$FL34m@

; 73   :                     break;

	jmp	SHORT $LN274@main
$LN91@main:

; 65   :                     break;
; 66   : 
; 67   :                 case COLOR_YELLOW_NUMBER:
; 68   :                     std::cout << COLOR_YELLOW << char(219) << char(219) << COLOR_RESET;

	lea	rdx, OFFSET FLAT:??_C@_05HMAPELLC@?$BL?$FL33m@

; 69   :                     break;

	jmp	SHORT $LN275@main
$LN89@main:

; 58   :             {
; 59   :                 case COLOR_DYNAMIC_NUMBER:
; 60   :                     std::cout << COLOR_DYNAMIC_OBJECT << char(219) << char(219) << COLOR_RESET;

	lea	rdx, OFFSET FLAT:??_C@_05HPILJPNM@?$BL?$FL31m@

; 61   :                     break;

	jmp	SHORT $LN275@main
$LN90@main:

; 62   : 
; 63   :                 case COLOR_STATIC_NUMBER:
; 64   :                     std::cout << COLOR_STATIC_OBJECT << char(219) << char(219) << COLOR_RESET;

	lea	rdx, OFFSET FLAT:??_C@_05HKMEIJFJ@?$BL?$FL36m@
$LN275@main:

; 55   :         for (int x = 0; x < SCENE_WIDTH; x++)

	mov	rcx, QWORD PTR __imp_?cout@std@@3V?$basic_ostream@DU?$char_traits@D@std@@@1@A
$LN274@main:
	call	??$?6U?$char_traits@D@std@@@std@@YAAEAV?$basic_ostream@DU?$char_traits@D@std@@@0@AEAV10@PEBD@Z ; std::operator<<<std::char_traits<char> >
	mov	rcx, rax
	call	??$?6U?$char_traits@D@std@@@std@@YAAEAV?$basic_ostream@DU?$char_traits@D@std@@@0@AEAV10@D@Z ; std::operator<<<std::char_traits<char> >
	mov	rcx, rax
	call	??$?6U?$char_traits@D@std@@@std@@YAAEAV?$basic_ostream@DU?$char_traits@D@std@@@0@AEAV10@D@Z ; std::operator<<<std::char_traits<char> >
	lea	rdx, OFFSET FLAT:??_C@_04MGNJNGKI@?$BL?$FL0m@
	mov	rcx, rax
	call	??$?6U?$char_traits@D@std@@@std@@YAAEAV?$basic_ostream@DU?$char_traits@D@std@@@0@AEAV10@PEBD@Z ; std::operator<<<std::char_traits<char> >
$LN84@main:
	add	rdi, 160				; 000000a0H
	sub	rsi, 1
	jne	$LL86@main

; 77   :                     break;
; 78   :             }
; 79   :         }
; 80   : 
; 81   :         std::cout << std::endl;

	lea	rdx, OFFSET FLAT:??$endl@DU?$char_traits@D@std@@@std@@YAAEAV?$basic_ostream@DU?$char_traits@D@std@@@0@AEAV10@@Z ; std::endl<char,std::char_traits<char> >
	mov	rcx, QWORD PTR __imp_?cout@std@@3V?$basic_ostream@DU?$char_traits@D@std@@@1@A
	call	QWORD PTR __imp_??6?$basic_ostream@DU?$char_traits@D@std@@@std@@QEAAAEAV01@P6AAEAV01@AEAV01@@Z@Z

; 37   : }
; 38   : 
; 39   : void Scene2D::Draw_Line(StartPoint startPoint, EndPoint endPoint, int value)
; 40   : {
; 41   :     Drawing2D::Draw_BresenhamLine(startPoint, endPoint, value, this->map);
; 42   : }
; 43   : 
; 44   : void Scene2D::Draw_Square(StartPoint startPoint, EndPoint endPoint, int value)
; 45   : {
; 46   :     Drawing2D::Draw_Square(startPoint, endPoint, value, this->map);
; 47   : }
; 48   : 
; 49   : 
; 50   : 
; 51   : void Scene2D::Print()
; 52   : {
; 53   :     for (int y = 0; y < SCENE_HEIGHT; y++)

	add	rbp, 4
	sub	r14, 1
	jne	$LL83@main

; 24   :     (*this->map)[x][y] -= value;

	movsxd	rax, DWORD PTR _target$[rsp]
	lea	rcx, QWORD PTR [rax+rax*4]
	movsxd	rax, DWORD PTR _target$[rsp+4]
	lea	rdx, QWORD PTR [rax+rcx*8]
	add	DWORD PTR [rbx+rdx*4], -4
; File C:\Users\damia\Desktop\CrowdSimulation\CrowdSimulation\main.cpp

; 69   :         (void)std::getchar();

	call	QWORD PTR __imp_getchar

; 70   :         system("cls");

	lea	rcx, OFFSET FLAT:??_C@_03LCPHGAHP@cls@
	call	QWORD PTR __imp_system

; 71   :     }

	jmp	$LL2@main
	int	3
main	ENDP
_TEXT	ENDS
; Function compile flags: /Ogtpy
;	COMDAT text$x
text$x	SEGMENT
_target$ = 32
_scene2D$ = 40
$T1 = 40
_gen$41 = 48
_map$ = 5056
__$ArrayPad$ = 11456
main$dtor$0 PROC
	push	rbp
	sub	rsp, 32					; 00000020H
	mov	rbp, rdx
	mov	edx, 16000				; 00003e80H
	mov	rcx, QWORD PTR $T1[rbp]
	call	??_V@YAXPEAX_K@Z			; operator delete[]
	add	rsp, 32					; 00000020H
	pop	rbp
	ret	0
main$dtor$0 ENDP
text$x	ENDS
; Function compile flags: /Ogtpy
;	COMDAT text$x
text$x	SEGMENT
_target$ = 32
_scene2D$ = 40
$T1 = 40
_gen$41 = 48
_map$ = 5056
__$ArrayPad$ = 11456
main$dtor$1 PROC
	lea	rcx, QWORD PTR _scene2D$[rdx]
	jmp	??1Scene2D@@QEAA@XZ			; Scene2D::~Scene2D
main$dtor$1 ENDP
text$x	ENDS
; Function compile flags: /Ogtpy
;	COMDAT ??_H@YAXPEAX_K1P6APEAX0@Z@Z
_TEXT	SEGMENT
__t$ = 48
__s$dead$ = 56
__n$dead$ = 64
__f$dead$ = 72
??_H@YAXPEAX_K1P6APEAX0@Z@Z PROC			; `vector constructor iterator', COMDAT
$LN121:
	mov	QWORD PTR [rsp+8], rbx
	push	rdi
	sub	rsp, 32					; 00000020H
	mov	rdi, rcx
	mov	ebx, 500				; 000001f4H
$LL2@vector:
	mov	rcx, rdi
	call	??0DynamicObject2D_Fast@@QEAA@XZ	; DynamicObject2D_Fast::DynamicObject2D_Fast
	add	rdi, 32					; 00000020H
	sub	rbx, 1
	jne	SHORT $LL2@vector
	mov	rbx, QWORD PTR [rsp+48]
	add	rsp, 32					; 00000020H
	pop	rdi
	ret	0
??_H@YAXPEAX_K1P6APEAX0@Z@Z ENDP			; `vector constructor iterator'
_TEXT	ENDS
END
