; Listing generated by Microsoft (R) Optimizing Compiler Version 19.36.32532.0 

include listing.inc

INCLUDELIB OLDNAMES

PUBLIC	??_C@_04MGNJNGKI@?$BL?$FL0m@			; `string'
PUBLIC	??_C@_05HPILJPNM@?$BL?$FL31m@			; `string'
PUBLIC	??_C@_05HKMEIJFJ@?$BL?$FL36m@			; `string'
PUBLIC	??_C@_05HMAPELLC@?$BL?$FL33m@			; `string'
PUBLIC	??_C@_05HJEAFNDH@?$BL?$FL34m@			; `string'
;	COMDAT ??_C@_05HJEAFNDH@?$BL?$FL34m@
CONST	SEGMENT
??_C@_05HJEAFNDH@?$BL?$FL34m@ DB 01bH, '[34m', 00H	; `string'
CONST	ENDS
;	COMDAT ??_C@_05HMAPELLC@?$BL?$FL33m@
CONST	SEGMENT
??_C@_05HMAPELLC@?$BL?$FL33m@ DB 01bH, '[33m', 00H	; `string'
CONST	ENDS
;	COMDAT ??_C@_05HKMEIJFJ@?$BL?$FL36m@
CONST	SEGMENT
??_C@_05HKMEIJFJ@?$BL?$FL36m@ DB 01bH, '[36m', 00H	; `string'
CONST	ENDS
;	COMDAT ??_C@_05HPILJPNM@?$BL?$FL31m@
CONST	SEGMENT
??_C@_05HPILJPNM@?$BL?$FL31m@ DB 01bH, '[31m', 00H	; `string'
CONST	ENDS
;	COMDAT ??_C@_04MGNJNGKI@?$BL?$FL0m@
CONST	SEGMENT
??_C@_04MGNJNGKI@?$BL?$FL0m@ DB 01bH, '[0m', 00H	; `string'
?_Fake_alloc@std@@3U_Fake_allocator@1@B	ORG $+1		; std::_Fake_alloc
PUBLIC	??$?6U?$char_traits@D@std@@@std@@YAAEAV?$basic_ostream@DU?$char_traits@D@std@@@0@AEAV10@D@Z ; std::operator<<<std::char_traits<char> >
PUBLIC	?Print@Scene2D@@QEAAXXZ				; Scene2D::Print
PUBLIC	?Remove_DynamicObject2D@Scene2D@@QEAAXPEBVDynamicObject2D@@@Z ; Scene2D::Remove_DynamicObject2D
PUBLIC	?Add_DynamicObject2D@Scene2D@@QEAAXPEBVDynamicObject2D@@@Z ; Scene2D::Add_DynamicObject2D
PUBLIC	?Draw_Square@Scene2D@@QEAAXUObject2D@@0H@Z	; Scene2D::Draw_Square
PUBLIC	?Draw_Line@Scene2D@@QEAAXUObject2D@@0H@Z	; Scene2D::Draw_Line
PUBLIC	?Remove_CustomValue@Scene2D@@QEAAXHHH@Z		; Scene2D::Remove_CustomValue
PUBLIC	?Set_CustomValue@Scene2D@@QEAAXHHH@Z		; Scene2D::Set_CustomValue
PUBLIC	??1Scene2D@@QEAA@XZ				; Scene2D::~Scene2D
PUBLIC	??0Scene2D@@QEAA@PEAY1CI@CI@H@Z			; Scene2D::Scene2D
;	COMDAT pdata
pdata	SEGMENT
$pdata$??$?6U?$char_traits@D@std@@@std@@YAAEAV?$basic_ostream@DU?$char_traits@D@std@@@0@AEAV10@D@Z DD imagerel $LN100@operator
	DD	imagerel $LN100@operator+428
	DD	imagerel $unwind$??$?6U?$char_traits@D@std@@@std@@YAAEAV?$basic_ostream@DU?$char_traits@D@std@@@0@AEAV10@D@Z
pdata	ENDS
;	COMDAT pdata
pdata	SEGMENT
$pdata$?catch$16@?0???$?6U?$char_traits@D@std@@@std@@YAAEAV?$basic_ostream@DU?$char_traits@D@std@@@0@AEAV10@D@Z@4HA DD imagerel ?catch$16@?0???$?6U?$char_traits@D@std@@@std@@YAAEAV?$basic_ostream@DU?$char_traits@D@std@@@0@AEAV10@D@Z@4HA
	DD	imagerel ?catch$16@?0???$?6U?$char_traits@D@std@@@std@@YAAEAV?$basic_ostream@DU?$char_traits@D@std@@@0@AEAV10@D@Z@4HA+59
	DD	imagerel $unwind$?catch$16@?0???$?6U?$char_traits@D@std@@@std@@YAAEAV?$basic_ostream@DU?$char_traits@D@std@@@0@AEAV10@D@Z@4HA
pdata	ENDS
;	COMDAT pdata
pdata	SEGMENT
$pdata$?Print@Scene2D@@QEAAXXZ DD imagerel $LN32@Print
	DD	imagerel $LN32@Print+242
	DD	imagerel $unwind$?Print@Scene2D@@QEAAXXZ
pdata	ENDS
;	COMDAT pdata
pdata	SEGMENT
$pdata$?Remove_DynamicObject2D@Scene2D@@QEAAXPEBVDynamicObject2D@@@Z DD imagerel $LN7@Remove_Dyn
	DD	imagerel $LN7@Remove_Dyn+24
	DD	imagerel $unwind$?Remove_DynamicObject2D@Scene2D@@QEAAXPEBVDynamicObject2D@@@Z
pdata	ENDS
;	COMDAT pdata
pdata	SEGMENT
$pdata$0$?Remove_DynamicObject2D@Scene2D@@QEAAXPEBVDynamicObject2D@@@Z DD imagerel $LN7@Remove_Dyn+24
	DD	imagerel $LN7@Remove_Dyn+85
	DD	imagerel $chain$0$?Remove_DynamicObject2D@Scene2D@@QEAAXPEBVDynamicObject2D@@@Z
pdata	ENDS
;	COMDAT pdata
pdata	SEGMENT
$pdata$1$?Remove_DynamicObject2D@Scene2D@@QEAAXPEBVDynamicObject2D@@@Z DD imagerel $LN7@Remove_Dyn+85
	DD	imagerel $LN7@Remove_Dyn+86
	DD	imagerel $chain$1$?Remove_DynamicObject2D@Scene2D@@QEAAXPEBVDynamicObject2D@@@Z
pdata	ENDS
;	COMDAT pdata
pdata	SEGMENT
$pdata$?Add_DynamicObject2D@Scene2D@@QEAAXPEBVDynamicObject2D@@@Z DD imagerel $LN7@Add_Dynami
	DD	imagerel $LN7@Add_Dynami+24
	DD	imagerel $unwind$?Add_DynamicObject2D@Scene2D@@QEAAXPEBVDynamicObject2D@@@Z
pdata	ENDS
;	COMDAT pdata
pdata	SEGMENT
$pdata$0$?Add_DynamicObject2D@Scene2D@@QEAAXPEBVDynamicObject2D@@@Z DD imagerel $LN7@Add_Dynami+24
	DD	imagerel $LN7@Add_Dynami+85
	DD	imagerel $chain$0$?Add_DynamicObject2D@Scene2D@@QEAAXPEBVDynamicObject2D@@@Z
pdata	ENDS
;	COMDAT pdata
pdata	SEGMENT
$pdata$1$?Add_DynamicObject2D@Scene2D@@QEAAXPEBVDynamicObject2D@@@Z DD imagerel $LN7@Add_Dynami+85
	DD	imagerel $LN7@Add_Dynami+86
	DD	imagerel $chain$1$?Add_DynamicObject2D@Scene2D@@QEAAXPEBVDynamicObject2D@@@Z
pdata	ENDS
;	COMDAT pdata
pdata	SEGMENT
$pdata$?Draw_Square@Scene2D@@QEAAXUObject2D@@0H@Z DD imagerel $LN31@Draw_Squar
	DD	imagerel $LN31@Draw_Squar+147
	DD	imagerel $unwind$?Draw_Square@Scene2D@@QEAAXUObject2D@@0H@Z
pdata	ENDS
;	COMDAT pdata
pdata	SEGMENT
$pdata$?Draw_Line@Scene2D@@QEAAXUObject2D@@0H@Z DD imagerel $LN21@Draw_Line
	DD	imagerel $LN21@Draw_Line+240
	DD	imagerel $unwind$?Draw_Line@Scene2D@@QEAAXUObject2D@@0H@Z
;	COMDAT xdata
xdata	SEGMENT
$unwind$?Draw_Line@Scene2D@@QEAAXUObject2D@@0H@Z DQ 0000a5419000a1901r ; 1.43636e-308
	DQ	0e017f01900083419r		; -8.02386e+154
	DQ	060107011c013d015r		; 5.50986e+154
xdata	ENDS
;	COMDAT xdata
xdata	SEGMENT
$unwind$?Draw_Square@Scene2D@@QEAAXUObject2D@@0H@Z DQ 00003740a00040a01r ; 4.80237e-309
	DD	023405H
xdata	ENDS
;	COMDAT xdata
xdata	SEGMENT
$chain$1$?Add_DynamicObject2D@Scene2D@@QEAAXPEBVDynamicObject2D@@@Z DD 021H
	DD	imagerel $LN7@Add_Dynami
	DD	imagerel $LN7@Add_Dynami+24
	DD	imagerel $unwind$?Add_DynamicObject2D@Scene2D@@QEAAXPEBVDynamicObject2D@@@Z
xdata	ENDS
;	COMDAT xdata
xdata	SEGMENT
$chain$0$?Add_DynamicObject2D@Scene2D@@QEAAXPEBVDynamicObject2D@@@Z DQ 00006340500020521r ; 8.62661e-309
	DD	imagerel $LN7@Add_Dynami
	DD	imagerel $LN7@Add_Dynami+24
	DD	imagerel $unwind$?Add_DynamicObject2D@Scene2D@@QEAAXPEBVDynamicObject2D@@@Z
xdata	ENDS
;	COMDAT xdata
xdata	SEGMENT
$unwind$?Add_DynamicObject2D@Scene2D@@QEAAXPEBVDynamicObject2D@@@Z DQ 00007640f00040f01r ; 1.02782e-308
	DD	0700b320fH
xdata	ENDS
;	COMDAT xdata
xdata	SEGMENT
$chain$1$?Remove_DynamicObject2D@Scene2D@@QEAAXPEBVDynamicObject2D@@@Z DD 021H
	DD	imagerel $LN7@Remove_Dyn
	DD	imagerel $LN7@Remove_Dyn+24
	DD	imagerel $unwind$?Remove_DynamicObject2D@Scene2D@@QEAAXPEBVDynamicObject2D@@@Z
xdata	ENDS
;	COMDAT xdata
xdata	SEGMENT
$chain$0$?Remove_DynamicObject2D@Scene2D@@QEAAXPEBVDynamicObject2D@@@Z DQ 00006340500020521r ; 8.62661e-309
	DD	imagerel $LN7@Remove_Dyn
	DD	imagerel $LN7@Remove_Dyn+24
	DD	imagerel $unwind$?Remove_DynamicObject2D@Scene2D@@QEAAXPEBVDynamicObject2D@@@Z
xdata	ENDS
;	COMDAT xdata
xdata	SEGMENT
$unwind$?Remove_DynamicObject2D@Scene2D@@QEAAXPEBVDynamicObject2D@@@Z DQ 00007640f00040f01r ; 1.02782e-308
	DD	0700b320fH
xdata	ENDS
;	COMDAT xdata
xdata	SEGMENT
$unwind$?Print@Scene2D@@QEAAXXZ DQ 00008741500081501r ; 1.1756e-308
	DQ	00006341500076415r		; 8.62695e-309
	DD	0e0113215H
xdata	ENDS
;	COMDAT xdata
xdata	SEGMENT
$unwind$?catch$16@?0???$?6U?$char_traits@D@std@@@std@@YAAEAV?$basic_ostream@DU?$char_traits@D@std@@@0@AEAV10@D@Z@4HA DQ 05006320a00020a01r ; 3.21257e+77
xdata	ENDS
;	COMDAT xdata
xdata	SEGMENT
$ip2state$??$?6U?$char_traits@D@std@@@std@@YAAEAV?$basic_ostream@DU?$char_traits@D@std@@@0@AEAV10@D@Z DQ 0c206e6025c00720cr ; -1.22935e+10
	DD	050006c04H
	DB	0aH
xdata	ENDS
;	COMDAT xdata
xdata	SEGMENT
$handlerMap$??$?6U?$char_traits@D@std@@@std@@YAAEAV?$basic_ostream@DU?$char_traits@D@std@@@0@AEAV10@D@Z DW 01102H
	DB	080H
	DD	imagerel ?catch$16@?0???$?6U?$char_traits@D@std@@@std@@YAAEAV?$basic_ostream@DU?$char_traits@D@std@@@0@AEAV10@D@Z@4HA
	DW	04f5H
xdata	ENDS
;	COMDAT xdata
xdata	SEGMENT
$tryMap$??$?6U?$char_traits@D@std@@@std@@YAAEAV?$basic_ostream@DU?$char_traits@D@std@@@0@AEAV10@D@Z DD 06040402H
	DD	imagerel $handlerMap$??$?6U?$char_traits@D@std@@@std@@YAAEAV?$basic_ostream@DU?$char_traits@D@std@@@0@AEAV10@D@Z
xdata	ENDS
;	COMDAT xdata
xdata	SEGMENT
$stateUnwindMap$??$?6U?$char_traits@D@std@@@std@@YAAEAV?$basic_ostream@DU?$char_traits@D@std@@@0@AEAV10@D@Z DW 0a0aH
	DD	imagerel ??1_Sentry_base@?$basic_ostream@DU?$char_traits@D@std@@@std@@QEAA@XZ
	DW	03a40H
	DD	imagerel ??1sentry@?$basic_ostream@DU?$char_traits@D@std@@@std@@QEAA@XZ
	DD	07e383040H
	DD	imagerel __std_terminate
xdata	ENDS
;	COMDAT xdata
xdata	SEGMENT
$cppxdata$??$?6U?$char_traits@D@std@@@std@@YAAEAV?$basic_ostream@DU?$char_traits@D@std@@@0@AEAV10@D@Z DB 038H
	DD	imagerel $stateUnwindMap$??$?6U?$char_traits@D@std@@@std@@YAAEAV?$basic_ostream@DU?$char_traits@D@std@@@0@AEAV10@D@Z
	DD	imagerel $tryMap$??$?6U?$char_traits@D@std@@@std@@YAAEAV?$basic_ostream@DU?$char_traits@D@std@@@0@AEAV10@D@Z
	DD	imagerel $ip2state$??$?6U?$char_traits@D@std@@@std@@YAAEAV?$basic_ostream@DU?$char_traits@D@std@@@0@AEAV10@D@Z
xdata	ENDS
;	COMDAT xdata
xdata	SEGMENT
$unwind$??$?6U?$char_traits@D@std@@@std@@YAAEAV?$basic_ostream@DU?$char_traits@D@std@@@0@AEAV10@D@Z DQ 0f010521400061419r ; -6.33451e+231
	DQ	0300a600b700ce00er		; 2.84726e-77
	DD	imagerel __CxxFrameHandler4
	DD	imagerel $cppxdata$??$?6U?$char_traits@D@std@@@std@@YAAEAV?$basic_ostream@DU?$char_traits@D@std@@@0@AEAV10@D@Z
END
